; Function Attrs: mustprogress uwtable
define dso_local void @_ZN16btBU_Simplex1to4C2ERK9btVector3S2_(ptr noundef nonnull align 8 dereferenceable(184) %0, ptr noundef nonnull readonly align 4 captures(none) dereferenceable(16) %1, ptr noundef nonnull readonly align 4 captures(none) dereferenceable(16) %2) unnamed_addr #0 align 2 personality ptr @__gxx_personality_v0 {
  tail call void @_ZN34btPolyhedralConvexAabbCachingShapeC2Ev(ptr noundef nonnull align 8 dereferenceable(113) %0)
  store ptr getelementptr inbounds nuw inrange(-16, 264) (i8, ptr @_ZTV16btBU_Simplex1to4, i64 16), ptr %0, align 8, !tbaa !4
  %4 = getelementptr inbounds nuw i8, ptr %0, i64 116
  %5 = getelementptr inbounds nuw i8, ptr %0, i64 8
  store i32 2, ptr %5, align 8, !tbaa !21
  %6 = getelementptr inbounds nuw i8, ptr %0, i64 120
  store i32 1, ptr %4, align 4, !tbaa !7
  tail call void @llvm.memcpy.p0.p0.i64(ptr noundef nonnull align 8 dereferenceable(16) %6, ptr noundef nonnull readonly align 4 dereferenceable(16) %1, i64 16, i1 false), !tbaa.struct !22
  invoke void @_ZN34btPolyhedralConvexAabbCachingShape15recalcLocalAabbEv(ptr noundef nonnull align 8 dereferenceable(184) %0)
          to label %_ZN16btBU_Simplex1to49addVertexERK9btVector3.exit unwind label %11

_ZN16btBU_Simplex1to49addVertexERK9btVector3.exit: ; preds = %3
  %7 = load i32, ptr %4, align 4, !tbaa !7
  %8 = add nsw i32 %7, 1
  store i32 %8, ptr %4, align 4, !tbaa !7
  %9 = sext i32 %7 to i64
  %10 = getelementptr inbounds [4 x %class.btVector3], ptr %6, i64 0, i64 %9
  tail call void @llvm.memcpy.p0.p0.i64(ptr noundef nonnull align 8 dereferenceable(16) %10, ptr noundef nonnull readonly align 4 dereferenceable(16) %2, i64 16, i1 false), !tbaa.struct !22
  invoke void @_ZN34btPolyhedralConvexAabbCachingShape15recalcLocalAabbEv(ptr noundef nonnull align 8 dereferenceable(184) %0)
          to label %_ZN16btBU_Simplex1to49addVertexERK9btVector3.exit6 unwind label %11

_ZN16btBU_Simplex1to49addVertexERK9btVector3.exit6: ; preds = %_ZN16btBU_Simplex1to49addVertexERK9btVector3.exit
  ret void

11:                                               ; preds = %_ZN16btBU_Simplex1to49addVertexERK9btVector3.exit, %3
  %12 = landingpad { ptr, i32 }
          cleanup
  tail call void @_ZN23btPolyhedralConvexShapeD2Ev(ptr noundef nonnull align 8 dereferenceable(113) %0) #12
  resume { ptr, i32 } %12
}